LIBRARY clangCppInterOp
EXPORTS
  ?write@raw_ostream@llvm@@QEAAAEAV12@PEBD_K@Z
  __imp_?classof@DeclContext@clang@@SA_NPEBVDecl@2@@Z
  ?create@Interpreter@clang@@SA?AV?$Expected@V?$unique_ptr@VInterpreter@clang@@U?$default_delete@VInterpreter@clang@@@std@@@std@@@llvm@@V?$unique_ptr@VCompilerInstance@clang@@U?$default_delete@VCompilerInstance@clang@@@std@@@std@@@Z
  ?errs@llvm@@YAAEAVraw_fd_ostream@1@XZ
  ?DestroyDataAndMakeUninit@APValue@clang@@AEAAXXZ
  ?dbgs@llvm@@YAAEAVraw_ostream@1@XZ
  ?fatalUncheckedError@Error@llvm@@AEBAXXZ
  ?logAllUnhandledErrors@llvm@@YAXVError@1@AEAVraw_ostream@1@VTwine@1@@Z
  ?isFloatingType@Type@clang@@QEBA_NXZ
  ?getDecl@TagType@clang@@QEBAPEAVTagDecl@2@XZ
  ?hasDefiningAttr@Decl@clang@@QEBA_NXZ
  ?getNumParams@FunctionDecl@clang@@QEBAIXZ
  ?getTemplateInstantiationPattern@FunctionDecl@clang@@QEBAPEAV12@_N@Z
  ?getTemplateSpecializationArgs@FunctionDecl@clang@@QEBAPEBVTemplateArgumentList@2@XZ
  ?initSlowCase@APInt@llvm@@AEAAX_K_N@Z
  ?compare@APInt@llvm@@AEBAHAEBV12@@Z
  ?compareSigned@APInt@llvm@@AEBAHAEBV12@@Z
  ?compareValues@APSInt@llvm@@SAHAEBV12@0@Z
  ??1raw_ostream@llvm@@UEAA@XZ
  ??1raw_string_ostream@llvm@@UEAA@XZ
  ?write_impl@raw_string_ostream@llvm@@EEAAXPEBD_K@Z
  ?changeColor@raw_ostream@llvm@@UEAAAEAV12@W4Colors@12@_N1@Z
  ?resetColor@raw_ostream@llvm@@UEAAAEAV12@XZ
  ?reverseColor@raw_ostream@llvm@@UEAAAEAV12@XZ
  ?preferred_buffer_size@raw_ostream@llvm@@MEBA_KXZ
  ?SetBufferAndMode@raw_ostream@llvm@@AEAAXPEAD_KW4BufferKind@12@@Z
  ?flush_nonempty@raw_ostream@llvm@@AEAAXXZ
  ?anchor@raw_ostream@llvm@@EEAAXXZ
  ?maybeMangleDeclName@compat@@YAXAEBVGlobalDecl@clang@@AEAV?$basic_string@DU?$char_traits@D@std@@V?$allocator@D@2@@std@@@Z
  ?grow_pod@?$SmallVectorBase@I@llvm@@IEAAXPEAX_K1@Z
  ??0APInt@llvm@@QEAA@IV?$ArrayRef@_K@1@@Z
  ?sext@APInt@llvm@@QEBA?AV12@I@Z
  ?zext@APInt@llvm@@QEBA?AV12@I@Z
  ?allocate_buffer@llvm@@YAPEAX_K0@Z
  ?RehashTable@StringMapImpl@llvm@@IEAAII@Z
  ?LookupBucketFor@StringMapImpl@llvm@@IEAAIVStringRef@2@I@Z
  ?hash@StringMapImpl@llvm@@SAIVStringRef@2@@Z
  ?getUnqualifiedDesugaredType@Type@clang@@QEBAPEBV12@XZ
  ?getASTContext@Decl@clang@@QEBAAEAVASTContext@2@XZ
  ?getAttrs@Decl@clang@@QEBAAEBV?$SmallVector@PEAVAttr@clang@@$03@llvm@@XZ
  ?lookup@DeclContext@clang@@QEBA?AVDeclContextLookupResult@2@VDeclarationName@2@@Z
  ?isThisDeclarationADefinition@VarDecl@clang@@QEBA?AW4DefinitionKind@12@AEAVASTContext@2@@Z
  ?isInjectedClassName@RecordDecl@clang@@QEBA_NXZ
  ?getTypeDeclTypeSlow@ASTContext@clang@@AEBA?AVQualType@2@PEBVTypeDecl@2@@Z
  ?getComplexType@ASTContext@clang@@QEBA?AVQualType@2@V32@@Z
  ?createMangleContext@ASTContext@clang@@QEAAPEAVMangleContext@2@PEBVTargetInfo@2@@Z
  ?getSpecializations@ClassTemplateDecl@clang@@IEBAAEAV?$FoldingSetVector@VClassTemplateSpecializationDecl@clang@@V?$SmallVector@PEAVClassTemplateSpecializationDecl@clang@@$07@llvm@@@llvm@@XZ
  ?getSpecializedTemplate@VarTemplateSpecializationDecl@clang@@QEBAPEAVVarTemplateDecl@2@XZ
  ?shouldMangleDeclName@MangleContext@clang@@QEAA_NPEBVNamedDecl@2@@Z
  ?mangleName@MangleContext@clang@@QEAAXVGlobalDecl@2@AEAVraw_ostream@llvm@@@Z
  ?getStdNamespace@Sema@clang@@QEBAPEAVNamespaceDecl@2@XZ
  ?castToDeclContext@Decl@clang@@SAPEAVDeclContext@2@PEBV12@@Z
  ?decls_begin@DeclContext@clang@@QEBA?AVdecl_iterator@12@XZ
  ?classof@DeclContext@clang@@SA_NPEBVDecl@2@@Z
  ?Parse@Interpreter@clang@@QEAA?AV?$Expected@AEAUPartialTranslationUnit@clang@@@llvm@@VStringRef@4@@Z
  ?Execute@Interpreter@clang@@QEAA?AVError@llvm@@AEAUPartialTranslationUnit@2@@Z
  ?getLValueReferenceType@ASTContext@clang@@QEBA?AVQualType@2@V32@_N@Z
  ?getCompilerInstance@Interpreter@clang@@QEAAPEAVCompilerInstance@2@XZ
  ?RunningOnValgrind@sys@llvm@@YA_NXZ
  ?grow_pod@?$SmallVectorBase@_K@llvm@@IEAAXPEAX_K1@Z
  ?access@fs@sys@llvm@@YA?AVerror_code@std@@AEBVTwine@3@W4AccessMode@123@@Z
  ?CreateCpp@IncrementalCompilerBuilder@clang@@QEAA?AV?$Expected@V?$unique_ptr@VCompilerInstance@clang@@U?$default_delete@VCompilerInstance@clang@@@std@@@std@@@llvm@@XZ
  ?getMainExecutable@fs@sys@llvm@@YA?AV?$basic_string@DU?$char_traits@D@std@@V?$allocator@D@2@@std@@PEBDPEAX@Z
  ?parent_path@path@sys@llvm@@YA?AVStringRef@3@V43@W4Style@123@@Z
